; Function Attrs: nounwind uwtable
define dso_local i32 @TocIDRequired(ptr noundef captures(none) %0, i32 noundef %1) local_unnamed_addr #0 {
  %3 = getelementptr inbounds nuw i8, ptr %0, i64 520
  %4 = load ptr, ptr %3, align 8
  %5 = icmp eq ptr %4, null
  br i1 %5, label %6, label %7

6:                                                ; preds = %2
  tail call fastcc void @buildTocEntryArrays(ptr noundef nonnull %0)
  br label %7

7:                                                ; preds = %6, %2
  %8 = icmp sgt i32 %1, 0
  br i1 %8, label %9, label %getTocEntryByDumpId.exit.thread

9:                                                ; preds = %7
  %10 = getelementptr inbounds nuw i8, ptr %0, i64 516
  %11 = load i32, ptr %10, align 4
  %.not.i = icmp sgt i32 %1, %11
  br i1 %.not.i, label %getTocEntryByDumpId.exit.thread, label %getTocEntryByDumpId.exit

getTocEntryByDumpId.exit:                         ; preds = %9
  %12 = load ptr, ptr %3, align 8
  %13 = zext nneg i32 %1 to i64
  %14 = getelementptr inbounds nuw ptr, ptr %12, i64 %13
  %15 = load ptr, ptr %14, align 8
  %.not = icmp eq ptr %15, null
  br i1 %.not, label %getTocEntryByDumpId.exit.thread, label %16

16:                                               ; preds = %getTocEntryByDumpId.exit
  %17 = getelementptr inbounds nuw i8, ptr %15, i64 168
  %18 = load i32, ptr %17, align 8
  br label %getTocEntryByDumpId.exit.thread

getTocEntryByDumpId.exit.thread:                  ; preds = %7, %9, %getTocEntryByDumpId.exit, %16
  %.0 = phi i32 [ %18, %16 ], [ 0, %getTocEntryByDumpId.exit ], [ 0, %9 ], [ 0, %7 ]
  ret i32 %.0
}